; Function Attrs: mustprogress nofree norecurse nosync nounwind willreturn memory(read, argmem: write, inaccessiblemem: none) uwtable
define internal noundef i32 @H5F__cache_drvrinfo_get_initial_load_size(ptr readnone captures(none) %0, ptr noundef writeonly captures(none) %1) #0 {
  %3 = load i8, ptr @H5F_init_g, align 1, !tbaa !3, !range !7, !noundef !8
  %4 = trunc nuw i8 %3 to i1
  %5 = load i8, ptr @H5_libterm_g, align 1, !range !7
  %6 = trunc nuw i8 %5 to i1
  %7 = xor i1 %6, true
  %8 = select i1 %4, i1 true, i1 %7
  br i1 %8, label %9, label %10, !prof !9

9:                                                ; preds = %2
  store i64 16, ptr %1, align 8, !tbaa !10
  br label %10

10:                                               ; preds = %9, %2
  ret i32 0
}